target datalayout = "e-m:e-p270:32:32-p271:32:32-p272:64:64-i64:64-i128:128-f80:128-n8:16:32:64-S128"
target triple = "x86_64-pc-linux-gnu"

%"class.nanogui::Texture" = type { %"class.nanogui::Object.base", i8, i8, i8, i8, i8, i8, i8, %"struct.nanogui::Array", i8, i32, i32 }
%"class.nanogui::Object.base" = type <{ ptr, %"struct.std::atomic" }>
%"struct.std::atomic" = type { %"struct.std::__atomic_base" }
%"struct.std::__atomic_base" = type { i32 }
%"struct.nanogui::Array" = type { [2 x i32] }

; Function Attrs: mustprogress uwtable
define hidden void @_ZN7nanogui7Texture15generate_mipmapEv(ptr noundef nonnull align 8 dereferenceable(40) %0) #0 align 2 {
  %2 = alloca ptr, align 8
  %3 = alloca i32, align 4
  store ptr %0, ptr %2, align 8
  %4 = load ptr, ptr %2, align 8
  %5 = getelementptr inbounds %"class.nanogui::Texture", ptr %4, i32 0, i32 6
  %6 = load i8, ptr %5, align 1
  %7 = zext i8 %6 to i32
  %8 = icmp sgt i32 %7, 1
  %9 = select i1 %8, i32 37120, i32 3553
  store i32 %9, ptr %3, align 4
  %10 = load i32, ptr %3, align 4
  %11 = getelementptr inbounds %"class.nanogui::Texture", ptr %4, i32 0, i32 10
  %12 = load i32, ptr %11, align 8
  call void @glBindTexture(i32 noundef %10, i32 noundef %12)
  %13 = load i32, ptr %3, align 4
  call void @glGenerateMipmap(i32 noundef %13)
  ret void
}