; Function Attrs: mustprogress uwtable
define hidden void @_ZN7nanogui7Texture15generate_mipmapEv(ptr nocapture noundef nonnull readonly align 8 dereferenceable(40) %0) local_unnamed_addr #0 align 2 {
  %2 = getelementptr inbounds i8, ptr %0, i64 17
  %3 = load i8, ptr %2, align 1
  %4 = icmp ugt i8 %3, 1
  %5 = select i1 %4, i32 37120, i32 3553
  %6 = getelementptr inbounds i8, ptr %0, i64 32
  %7 = load i32, ptr %6, align 8
  tail call void @glBindTexture(i32 noundef %5, i32 noundef %7)
  tail call void @glGenerateMipmap(i32 noundef %5)
  ret void
}